---
triple:          'arm64-apple-darwin'
binary-path:     "/Users/sombobby/Documents/Github/AlgorithmDesign2024/output/a62_\u200Bq1b_\u200Bvirus"
relocations:
  - { offsetInCU: 0x3F9E, offset: 0x3F9E, size: 0x8, addend: 0x0, symName: __ZNSt3__124__put_character_sequenceB7v160006IcNS_11char_traitsIcEEEERNS_13basic_ostreamIT_T0_EES7_PKS4_m, symObjAddr: 0x147C, symBinAddr: 0x100002F6C, symSize: 0x1F4 }
  - { offsetInCU: 0x5AE1, offset: 0x5AE1, size: 0x8, addend: 0x0, symName: __ZNSt3__1lsB7v160006INS_11char_traitsIcEEEERNS_13basic_ostreamIcT_EES6_PKc, symObjAddr: 0x370, symBinAddr: 0x100001E60, symSize: 0x48 }
  - { offsetInCU: 0x5B27, offset: 0x5B27, size: 0x8, addend: 0x0, symName: __ZNSt3__122__make_exception_guardB7v160006INS_6vectorIiNS_9allocatorIiEEE16__destroy_vectorEEENS_28__exception_guard_exceptionsIT_EES7_, symObjAddr: 0x514, symBinAddr: 0x100002004, symSize: 0x40 }
  - { offsetInCU: 0x5B5C, offset: 0x5B5C, size: 0x8, addend: 0x0, symName: __ZNSt3__119__debug_db_insert_cB7v160006INS_6vectorIiNS_9allocatorIiEEEEEEvPT_, symObjAddr: 0x588, symBinAddr: 0x100002078, symSize: 0x10 }
  - { offsetInCU: 0x5B8D, offset: 0x5B8D, size: 0x8, addend: 0x0, symName: __ZNSt3__119__allocate_at_leastB7v160006INS_9allocatorIiEEEENS_19__allocation_resultINS_16allocator_traitsIT_E7pointerEEERS5_m, symObjAddr: 0x92C, symBinAddr: 0x10000241C, symSize: 0x40 }
  - { offsetInCU: 0x5BD0, offset: 0x5BD0, size: 0x8, addend: 0x0, symName: __ZNSt3__13minB7v160006ImEERKT_S3_S3_, symObjAddr: 0xA68, symBinAddr: 0x100002558, symSize: 0x2C }
  - { offsetInCU: 0x5E14, offset: 0x5E14, size: 0x8, addend: 0x0, symName: __ZNSt3__13minB7v160006ImNS_6__lessImmEEEERKT_S5_S5_T0_, symObjAddr: 0xAF4, symBinAddr: 0x1000025E4, symSize: 0x54 }
  - { offsetInCU: 0x5EA9, offset: 0x5EA9, size: 0x8, addend: 0x0, symName: __ZNSt3__120__throw_length_errorB7v160006EPKc, symObjAddr: 0xBD0, symBinAddr: 0x1000026C0, symSize: 0x64 }
  - { offsetInCU: 0x5ED1, offset: 0x5ED1, size: 0x8, addend: 0x0, symName: __ZNSt3__130__libcpp_is_constant_evaluatedB7v160006Ev, symObjAddr: 0xD6C, symBinAddr: 0x10000285C, symSize: 0xC }
  - { offsetInCU: 0x5EEE, offset: 0x5EEE, size: 0x8, addend: 0x0, symName: __ZNSt3__117__libcpp_allocateB7v160006Emm, symObjAddr: 0xD78, symBinAddr: 0x100002868, symSize: 0x28 }
  - { offsetInCU: 0x5F2B, offset: 0x5F2B, size: 0x8, addend: 0x0, symName: __ZNSt3__121__libcpp_operator_newB7v160006IJmEEEPvDpT_, symObjAddr: 0xDA0, symBinAddr: 0x100002890, symSize: 0x24 }
  - { offsetInCU: 0x5F64, offset: 0x5F64, size: 0x8, addend: 0x0, symName: __ZNSt3__112__to_addressB7v160006IiEEPT_S2_, symObjAddr: 0xEBC, symBinAddr: 0x1000029AC, symSize: 0x14 }
  - { offsetInCU: 0x5F99, offset: 0x5F99, size: 0x8, addend: 0x0, symName: __ZNSt3__118__debug_db_erase_cB7v160006INS_6vectorIiNS_9allocatorIiEEEEEEvPT_, symObjAddr: 0x11E0, symBinAddr: 0x100002CD0, symSize: 0x10 }
  - { offsetInCU: 0x5FCA, offset: 0x5FCA, size: 0x8, addend: 0x0, symName: __ZNSt3__119__libcpp_deallocateB7v160006EPvmm, symObjAddr: 0x13C4, symBinAddr: 0x100002EB4, symSize: 0x30 }
  - { offsetInCU: 0x6012, offset: 0x6012, size: 0x8, addend: 0x0, symName: __ZNSt3__127__do_deallocate_handle_sizeB7v160006IJEEEvPvmDpT_, symObjAddr: 0x13F4, symBinAddr: 0x100002EE4, symSize: 0x28 }
  - { offsetInCU: 0x6050, offset: 0x6050, size: 0x8, addend: 0x0, symName: __ZNSt3__124__libcpp_operator_deleteB7v160006IJPvEEEvDpT_, symObjAddr: 0x141C, symBinAddr: 0x100002F0C, symSize: 0x24 }
  - { offsetInCU: 0x6085, offset: 0x6085, size: 0x8, addend: 0x0, symName: __ZNSt3__116__pad_and_outputB7v160006IcNS_11char_traitsIcEEEENS_19ostreambuf_iteratorIT_T0_EES6_PKS4_S8_S8_RNS_8ios_baseES4_, symObjAddr: 0x16D4, symBinAddr: 0x1000031C4, symSize: 0x248 }
  - { offsetInCU: 0x6154, offset: 0x6154, size: 0x8, addend: 0x0, symName: __ZNSt3__119__debug_db_insert_cB7v160006INS_12basic_stringIcNS_11char_traitsIcEENS_9allocatorIcEEEEEEvPT_, symObjAddr: 0x1B90, symBinAddr: 0x100003680, symSize: 0x10 }
  - { offsetInCU: 0x6185, offset: 0x6185, size: 0x8, addend: 0x0, symName: __ZNSt3__112__to_addressB7v160006IKcEEPT_S3_, symObjAddr: 0x1C5C, symBinAddr: 0x10000374C, symSize: 0x14 }
  - { offsetInCU: 0x61ED, offset: 0x61ED, size: 0x8, addend: 0x0, symName: __ZNSt3__19use_facetB7v160006INS_5ctypeIcEEEERKT_RKNS_6localeE, symObjAddr: 0x1F34, symBinAddr: 0x100003A24, symSize: 0x2C }
  - { offsetInCU: 0x66BC, offset: 0x66BC, size: 0x8, addend: 0x0, symName: __ZNSt3__118__constexpr_strlenB7v160006EPKc, symObjAddr: 0x1FCC, symBinAddr: 0x100003ABC, symSize: 0x24 }
  - { offsetInCU: 0x688E, offset: 0x688E, size: 0x8, addend: 0x0, symName: __ZSt28__throw_bad_array_new_lengthB7v160006v, symObjAddr: 0xD38, symBinAddr: 0x100002828, symSize: 0x34 }
  - { offsetInCU: 0x6B4F, offset: 0x6B4F, size: 0x8, addend: 0x0, symName: __Z3powB7v160006IiiENSt3__19enable_ifIXaasr3std13is_arithmeticIT_EE5valuesr3std13is_arithmeticIT0_EE5valueENS0_9__promoteIS2_S3_vEEE4type4typeES2_S3_, symObjAddr: 0x2F8, symBinAddr: 0x100001DE8, symSize: 0x44 }
  - { offsetInCU: 0x8EEB, offset: 0x8EEB, size: 0x8, addend: 0x0, symName: __Z11detectVirusRNSt3__16vectorIiNS_9allocatorIiEEEEii, symObjAddr: 0x0, symBinAddr: 0x100001AF0, symSize: 0x12C }
  - { offsetInCU: 0x8F5E, offset: 0x8F5E, size: 0x8, addend: 0x0, symName: __ZNSt3__16vectorIiNS_9allocatorIiEEEixB7v160006Em, symObjAddr: 0x12C, symBinAddr: 0x100001C1C, symSize: 0x24 }
  - { offsetInCU: 0x8F94, offset: 0x8F94, size: 0x8, addend: 0x0, symName: _main, symObjAddr: 0x150, symBinAddr: 0x100001C40, symSize: 0x1A8 }
  - { offsetInCU: 0x9018, offset: 0x9018, size: 0x8, addend: 0x0, symName: __ZNSt3__16vectorIiNS_9allocatorIiEEEC1Em, symObjAddr: 0x33C, symBinAddr: 0x100001E2C, symSize: 0x34 }
  - { offsetInCU: 0x9053, offset: 0x9053, size: 0x8, addend: 0x0, symName: __ZNSt3__16vectorIiNS_9allocatorIiEEED1B7v160006Ev, symObjAddr: 0x3B8, symBinAddr: 0x100001EA8, symSize: 0x2C }
  - { offsetInCU: 0x907D, offset: 0x907D, size: 0x8, addend: 0x0, symName: __ZNSt3__16vectorIiNS_9allocatorIiEEEC2Em, symObjAddr: 0x3F0, symBinAddr: 0x100001EE0, symSize: 0xE8 }
  - { offsetInCU: 0x90D7, offset: 0x90D7, size: 0x8, addend: 0x0, symName: __ZNSt3__117__compressed_pairIPiNS_9allocatorIiEEEC1B7v160006IDnNS_18__default_init_tagEEEOT_OT0_, symObjAddr: 0x4D8, symBinAddr: 0x100001FC8, symSize: 0x3C }
  - { offsetInCU: 0x912F, offset: 0x912F, size: 0x8, addend: 0x0, symName: __ZNSt3__16vectorIiNS_9allocatorIiEEE16__destroy_vectorC1ERS3_, symObjAddr: 0x554, symBinAddr: 0x100002044, symSize: 0x34 }
  - { offsetInCU: 0x9168, offset: 0x9168, size: 0x8, addend: 0x0, symName: __ZNSt3__16vectorIiNS_9allocatorIiEEE11__vallocateB7v160006Em, symObjAddr: 0x598, symBinAddr: 0x100002088, symSize: 0xAC }
  - { offsetInCU: 0x91AC, offset: 0x91AC, size: 0x8, addend: 0x0, symName: __ZNSt3__16vectorIiNS_9allocatorIiEEE18__construct_at_endEm, symObjAddr: 0x644, symBinAddr: 0x100002134, symSize: 0xD0 }
  - { offsetInCU: 0x921F, offset: 0x921F, size: 0x8, addend: 0x0, symName: __ZNSt3__128__exception_guard_exceptionsINS_6vectorIiNS_9allocatorIiEEE16__destroy_vectorEE10__completeB7v160006Ev, symObjAddr: 0x714, symBinAddr: 0x100002204, symSize: 0x1C }
  - { offsetInCU: 0x9245, offset: 0x9245, size: 0x8, addend: 0x0, symName: __ZNSt3__128__exception_guard_exceptionsINS_6vectorIiNS_9allocatorIiEEE16__destroy_vectorEED1B7v160006Ev, symObjAddr: 0x730, symBinAddr: 0x100002220, symSize: 0x2C }
  - { offsetInCU: 0x926F, offset: 0x926F, size: 0x8, addend: 0x0, symName: __ZNSt3__117__compressed_pairIPiNS_9allocatorIiEEEC2B7v160006IDnNS_18__default_init_tagEEEOT_OT0_, symObjAddr: 0x75C, symBinAddr: 0x10000224C, symSize: 0x40 }
  - { offsetInCU: 0x92C7, offset: 0x92C7, size: 0x8, addend: 0x0, symName: __ZNSt3__122__compressed_pair_elemIPiLi0ELb0EEC2B7v160006IDnvEEOT_, symObjAddr: 0x79C, symBinAddr: 0x10000228C, symSize: 0x1C }
  - { offsetInCU: 0x9309, offset: 0x9309, size: 0x8, addend: 0x0, symName: __ZNSt3__122__compressed_pair_elemINS_9allocatorIiEELi1ELb1EEC2B7v160006ENS_18__default_init_tagE, symObjAddr: 0x7B8, symBinAddr: 0x1000022A8, symSize: 0x2C }
  - { offsetInCU: 0x933E, offset: 0x933E, size: 0x8, addend: 0x0, symName: __ZNSt3__19allocatorIiEC2B7v160006Ev, symObjAddr: 0x7E4, symBinAddr: 0x1000022D4, symSize: 0x2C }
  - { offsetInCU: 0x9368, offset: 0x9368, size: 0x8, addend: 0x0, symName: __ZNSt3__116__non_trivial_ifILb1ENS_9allocatorIiEEEC2B7v160006Ev, symObjAddr: 0x810, symBinAddr: 0x100002300, symSize: 0x14 }
  - { offsetInCU: 0x9392, offset: 0x9392, size: 0x8, addend: 0x0, symName: __ZNSt3__128__exception_guard_exceptionsINS_6vectorIiNS_9allocatorIiEEE16__destroy_vectorEEC1B7v160006ES5_, symObjAddr: 0x824, symBinAddr: 0x100002314, symSize: 0x34 }
  - { offsetInCU: 0x93CA, offset: 0x93CA, size: 0x8, addend: 0x0, symName: __ZNSt3__128__exception_guard_exceptionsINS_6vectorIiNS_9allocatorIiEEE16__destroy_vectorEEC2B7v160006ES5_, symObjAddr: 0x858, symBinAddr: 0x100002348, symSize: 0x24 }
  - { offsetInCU: 0x9402, offset: 0x9402, size: 0x8, addend: 0x0, symName: __ZNSt3__16vectorIiNS_9allocatorIiEEE16__destroy_vectorC2ERS3_, symObjAddr: 0x87C, symBinAddr: 0x10000236C, symSize: 0x20 }
  - { offsetInCU: 0x943B, offset: 0x943B, size: 0x8, addend: 0x0, symName: __ZNKSt3__16vectorIiNS_9allocatorIiEEE8max_sizeEv, symObjAddr: 0x89C, symBinAddr: 0x10000238C, symSize: 0x74 }
  - { offsetInCU: 0x9463, offset: 0x9463, size: 0x8, addend: 0x0, symName: __ZNKSt3__16vectorIiNS_9allocatorIiEEE20__throw_length_errorB7v160006Ev, symObjAddr: 0x910, symBinAddr: 0x100002400, symSize: 0x1C }
  - { offsetInCU: 0x9489, offset: 0x9489, size: 0x8, addend: 0x0, symName: __ZNSt3__16vectorIiNS_9allocatorIiEEE7__allocB7v160006Ev, symObjAddr: 0x96C, symBinAddr: 0x10000245C, symSize: 0x28 }
  - { offsetInCU: 0x94AF, offset: 0x94AF, size: 0x8, addend: 0x0, symName: __ZNSt3__16vectorIiNS_9allocatorIiEEE9__end_capB7v160006Ev, symObjAddr: 0x994, symBinAddr: 0x100002484, symSize: 0x28 }
  - { offsetInCU: 0x94D5, offset: 0x94D5, size: 0x8, addend: 0x0, symName: __ZNKSt3__16vectorIiNS_9allocatorIiEEE14__annotate_newB7v160006Em, symObjAddr: 0x9BC, symBinAddr: 0x1000024AC, symSize: 0xAC }
  - { offsetInCU: 0x9514, offset: 0x9514, size: 0x8, addend: 0x0, symName: __ZNSt3__116allocator_traitsINS_9allocatorIiEEE8max_sizeB7v160006IS2_vEEmRKS2_, symObjAddr: 0xA94, symBinAddr: 0x100002584, symSize: 0x24 }
  - { offsetInCU: 0x9542, offset: 0x9542, size: 0x8, addend: 0x0, symName: __ZNKSt3__16vectorIiNS_9allocatorIiEEE7__allocB7v160006Ev, symObjAddr: 0xAB8, symBinAddr: 0x1000025A8, symSize: 0x28 }
  - { offsetInCU: 0x9568, offset: 0x9568, size: 0x8, addend: 0x0, symName: __ZNSt3__114numeric_limitsIlE3maxB7v160006Ev, symObjAddr: 0xAE0, symBinAddr: 0x1000025D0, symSize: 0x14 }
  - { offsetInCU: 0x9590, offset: 0x9590, size: 0x8, addend: 0x0, symName: __ZNKSt3__16__lessImmEclB7v160006ERKmS3_, symObjAddr: 0xB48, symBinAddr: 0x100002638, symSize: 0x34 }
  - { offsetInCU: 0x95D2, offset: 0x95D2, size: 0x8, addend: 0x0, symName: __ZNKSt3__19allocatorIiE8max_sizeB7v160006Ev, symObjAddr: 0xB7C, symBinAddr: 0x10000266C, symSize: 0x14 }
  - { offsetInCU: 0x95F8, offset: 0x95F8, size: 0x8, addend: 0x0, symName: __ZNKSt3__117__compressed_pairIPiNS_9allocatorIiEEE6secondB7v160006Ev, symObjAddr: 0xB90, symBinAddr: 0x100002680, symSize: 0x24 }
  - { offsetInCU: 0x961E, offset: 0x961E, size: 0x8, addend: 0x0, symName: __ZNKSt3__122__compressed_pair_elemINS_9allocatorIiEELi1ELb1EE5__getB7v160006Ev, symObjAddr: 0xBB4, symBinAddr: 0x1000026A4, symSize: 0x14 }
  - { offsetInCU: 0x9644, offset: 0x9644, size: 0x8, addend: 0x0, symName: __ZNSt3__123__libcpp_numeric_limitsIlLb1EE3maxB7v160006Ev, symObjAddr: 0xBC8, symBinAddr: 0x1000026B8, symSize: 0x8 }
  - { offsetInCU: 0x9658, offset: 0x9658, size: 0x8, addend: 0x0, symName: __ZNSt12length_errorC1B7v160006EPKc, symObjAddr: 0xC34, symBinAddr: 0x100002724, symSize: 0x34 }
  - { offsetInCU: 0x9690, offset: 0x9690, size: 0x8, addend: 0x0, symName: __ZNSt12length_errorC2B7v160006EPKc, symObjAddr: 0xC68, symBinAddr: 0x100002758, symSize: 0x4C }
  - { offsetInCU: 0x96C8, offset: 0x96C8, size: 0x8, addend: 0x0, symName: __ZNSt3__19allocatorIiE8allocateB7v160006Em, symObjAddr: 0xCB4, symBinAddr: 0x1000027A4, symSize: 0x84 }
  - { offsetInCU: 0x96FC, offset: 0x96FC, size: 0x8, addend: 0x0, symName: __ZNSt3__117__compressed_pairIPiNS_9allocatorIiEEE6secondB7v160006Ev, symObjAddr: 0xDC4, symBinAddr: 0x1000028B4, symSize: 0x24 }
  - { offsetInCU: 0x9722, offset: 0x9722, size: 0x8, addend: 0x0, symName: __ZNSt3__122__compressed_pair_elemINS_9allocatorIiEELi1ELb1EE5__getB7v160006Ev, symObjAddr: 0xDE8, symBinAddr: 0x1000028D8, symSize: 0x14 }
  - { offsetInCU: 0x9748, offset: 0x9748, size: 0x8, addend: 0x0, symName: __ZNSt3__117__compressed_pairIPiNS_9allocatorIiEEE5firstB7v160006Ev, symObjAddr: 0xDFC, symBinAddr: 0x1000028EC, symSize: 0x24 }
  - { offsetInCU: 0x976E, offset: 0x976E, size: 0x8, addend: 0x0, symName: __ZNSt3__122__compressed_pair_elemIPiLi0ELb0EE5__getB7v160006Ev, symObjAddr: 0xE20, symBinAddr: 0x100002910, symSize: 0x14 }
  - { offsetInCU: 0x9794, offset: 0x9794, size: 0x8, addend: 0x0, symName: __ZNKSt3__16vectorIiNS_9allocatorIiEEE31__annotate_contiguous_containerB7v160006EPKvS5_S5_S5_, symObjAddr: 0xE34, symBinAddr: 0x100002924, symSize: 0x20 }
  - { offsetInCU: 0x97EA, offset: 0x97EA, size: 0x8, addend: 0x0, symName: __ZNKSt3__16vectorIiNS_9allocatorIiEEE4dataB7v160006Ev, symObjAddr: 0xE54, symBinAddr: 0x100002944, symSize: 0x28 }
  - { offsetInCU: 0x9810, offset: 0x9810, size: 0x8, addend: 0x0, symName: __ZNKSt3__16vectorIiNS_9allocatorIiEEE8capacityB7v160006Ev, symObjAddr: 0xE7C, symBinAddr: 0x10000296C, symSize: 0x40 }
  - { offsetInCU: 0x9836, offset: 0x9836, size: 0x8, addend: 0x0, symName: __ZNKSt3__16vectorIiNS_9allocatorIiEEE9__end_capB7v160006Ev, symObjAddr: 0xED0, symBinAddr: 0x1000029C0, symSize: 0x28 }
  - { offsetInCU: 0x985C, offset: 0x985C, size: 0x8, addend: 0x0, symName: __ZNKSt3__117__compressed_pairIPiNS_9allocatorIiEEE5firstB7v160006Ev, symObjAddr: 0xEF8, symBinAddr: 0x1000029E8, symSize: 0x24 }
  - { offsetInCU: 0x9882, offset: 0x9882, size: 0x8, addend: 0x0, symName: __ZNKSt3__122__compressed_pair_elemIPiLi0ELb0EE5__getB7v160006Ev, symObjAddr: 0xF1C, symBinAddr: 0x100002A0C, symSize: 0x14 }
  - { offsetInCU: 0x98C1, offset: 0x98C1, size: 0x8, addend: 0x0, symName: __ZNSt3__16vectorIiNS_9allocatorIiEEE21_ConstructTransactionC1B7v160006ERS3_m, symObjAddr: 0xF30, symBinAddr: 0x100002A20, symSize: 0x3C }
  - { offsetInCU: 0x9909, offset: 0x9909, size: 0x8, addend: 0x0, symName: __ZNSt3__116allocator_traitsINS_9allocatorIiEEE9constructB7v160006IiJEvEEvRS2_PT_DpOT0_, symObjAddr: 0xF6C, symBinAddr: 0x100002A5C, symSize: 0x2C }
  - { offsetInCU: 0x994B, offset: 0x994B, size: 0x8, addend: 0x0, symName: __ZNSt3__16vectorIiNS_9allocatorIiEEE21_ConstructTransactionD1B7v160006Ev, symObjAddr: 0xF98, symBinAddr: 0x100002A88, symSize: 0x2C }
  - { offsetInCU: 0x9975, offset: 0x9975, size: 0x8, addend: 0x0, symName: __ZNSt3__16vectorIiNS_9allocatorIiEEE21_ConstructTransactionC2B7v160006ERS3_m, symObjAddr: 0xFC4, symBinAddr: 0x100002AB4, symSize: 0x44 }
  - { offsetInCU: 0x99BD, offset: 0x99BD, size: 0x8, addend: 0x0, symName: __ZNSt3__19allocatorIiE9constructB7v160006IiJEEEvPT_DpOT0_, symObjAddr: 0x1008, symBinAddr: 0x100002AF8, symSize: 0x1C }
  - { offsetInCU: 0x99FF, offset: 0x99FF, size: 0x8, addend: 0x0, symName: __ZNSt3__16vectorIiNS_9allocatorIiEEE21_ConstructTransactionD2B7v160006Ev, symObjAddr: 0x1024, symBinAddr: 0x100002B14, symSize: 0x20 }
  - { offsetInCU: 0x9A29, offset: 0x9A29, size: 0x8, addend: 0x0, symName: __ZNSt3__128__exception_guard_exceptionsINS_6vectorIiNS_9allocatorIiEEE16__destroy_vectorEED2B7v160006Ev, symObjAddr: 0x1044, symBinAddr: 0x100002B34, symSize: 0x48 }
  - { offsetInCU: 0x9A53, offset: 0x9A53, size: 0x8, addend: 0x0, symName: __ZNSt3__16vectorIiNS_9allocatorIiEEE16__destroy_vectorclB7v160006Ev, symObjAddr: 0x108C, symBinAddr: 0x100002B7C, symSize: 0x9C }
  - { offsetInCU: 0x9A79, offset: 0x9A79, size: 0x8, addend: 0x0, symName: __ZNKSt3__16vectorIiNS_9allocatorIiEEE17__annotate_deleteB7v160006Ev, symObjAddr: 0x1128, symBinAddr: 0x100002C18, symSize: 0xB8 }
  - { offsetInCU: 0x9A9F, offset: 0x9A9F, size: 0x8, addend: 0x0, symName: __ZNSt3__16vectorIiNS_9allocatorIiEEE7__clearB7v160006Ev, symObjAddr: 0x11F0, symBinAddr: 0x100002CE0, symSize: 0x28 }
  - { offsetInCU: 0x9AC5, offset: 0x9AC5, size: 0x8, addend: 0x0, symName: __ZNSt3__116allocator_traitsINS_9allocatorIiEEE10deallocateB7v160006ERS2_Pim, symObjAddr: 0x1218, symBinAddr: 0x100002D08, symSize: 0x34 }
  - { offsetInCU: 0x9B07, offset: 0x9B07, size: 0x8, addend: 0x0, symName: __ZNKSt3__16vectorIiNS_9allocatorIiEEE4sizeB7v160006Ev, symObjAddr: 0x124C, symBinAddr: 0x100002D3C, symSize: 0x28 }
  - { offsetInCU: 0x9B2D, offset: 0x9B2D, size: 0x8, addend: 0x0, symName: __ZNSt3__16vectorIiNS_9allocatorIiEEE22__base_destruct_at_endB7v160006EPi, symObjAddr: 0x1274, symBinAddr: 0x100002D64, symSize: 0xA0 }
  - { offsetInCU: 0x9B71, offset: 0x9B71, size: 0x8, addend: 0x0, symName: __ZNSt3__116allocator_traitsINS_9allocatorIiEEE7destroyB7v160006IivEEvRS2_PT_, symObjAddr: 0x1314, symBinAddr: 0x100002E04, symSize: 0x2C }
  - { offsetInCU: 0x9BAE, offset: 0x9BAE, size: 0x8, addend: 0x0, symName: __ZNSt3__19allocatorIiE7destroyB7v160006EPi, symObjAddr: 0x1340, symBinAddr: 0x100002E30, symSize: 0x14 }
  - { offsetInCU: 0x9BE2, offset: 0x9BE2, size: 0x8, addend: 0x0, symName: __ZNSt3__19allocatorIiE10deallocateB7v160006EPim, symObjAddr: 0x1354, symBinAddr: 0x100002E44, symSize: 0x70 }
  - { offsetInCU: 0x9C24, offset: 0x9C24, size: 0x8, addend: 0x0, symName: __ZNSt3__16vectorIiNS_9allocatorIiEEED2B7v160006Ev, symObjAddr: 0x1440, symBinAddr: 0x100002F30, symSize: 0x3C }
  - { offsetInCU: 0x9C4E, offset: 0x9C4E, size: 0x8, addend: 0x0, symName: __ZNSt3__111char_traitsIcE6lengthEPKc, symObjAddr: 0x1670, symBinAddr: 0x100003160, symSize: 0x48 }
  - { offsetInCU: 0x9C8F, offset: 0x9C8F, size: 0x8, addend: 0x0, symName: __ZNKSt3__113basic_ostreamIcNS_11char_traitsIcEEE6sentrycvbB7v160006Ev, symObjAddr: 0x16B8, symBinAddr: 0x1000031A8, symSize: 0x1C }
  - { offsetInCU: 0x9CB5, offset: 0x9CB5, size: 0x8, addend: 0x0, symName: __ZNSt3__119ostreambuf_iteratorIcNS_11char_traitsIcEEEC1B7v160006ERNS_13basic_ostreamIcS2_EE, symObjAddr: 0x191C, symBinAddr: 0x10000340C, symSize: 0x34 }
  - { offsetInCU: 0x9CED, offset: 0x9CED, size: 0x8, addend: 0x0, symName: __ZNKSt3__18ios_base5flagsB7v160006Ev, symObjAddr: 0x1950, symBinAddr: 0x100003440, symSize: 0x18 }
  - { offsetInCU: 0x9D14, offset: 0x9D14, size: 0x8, addend: 0x0, symName: __ZNKSt3__19basic_iosIcNS_11char_traitsIcEEE4fillB7v160006Ev, symObjAddr: 0x1968, symBinAddr: 0x100003458, symSize: 0x64 }
  - { offsetInCU: 0x9D3C, offset: 0x9D3C, size: 0x8, addend: 0x0, symName: __ZNKSt3__119ostreambuf_iteratorIcNS_11char_traitsIcEEE6failedB7v160006Ev, symObjAddr: 0x19CC, symBinAddr: 0x1000034BC, symSize: 0x24 }
  - { offsetInCU: 0x9D62, offset: 0x9D62, size: 0x8, addend: 0x0, symName: __ZNSt3__19basic_iosIcNS_11char_traitsIcEEE8setstateB7v160006Ej, symObjAddr: 0x19F0, symBinAddr: 0x1000034E0, symSize: 0x2C }
  - { offsetInCU: 0x9D97, offset: 0x9D97, size: 0x8, addend: 0x0, symName: __ZNKSt3__18ios_base5widthB7v160006Ev, symObjAddr: 0x1A1C, symBinAddr: 0x10000350C, symSize: 0x18 }
  - { offsetInCU: 0x9DBE, offset: 0x9DBE, size: 0x8, addend: 0x0, symName: __ZNSt3__115basic_streambufIcNS_11char_traitsIcEEE5sputnB7v160006EPKcl, symObjAddr: 0x1A34, symBinAddr: 0x100003524, symSize: 0x3C }
  - { offsetInCU: 0x9E00, offset: 0x9E00, size: 0x8, addend: 0x0, symName: __ZNSt3__112basic_stringIcNS_11char_traitsIcEENS_9allocatorIcEEEC1B7v160006Emc, symObjAddr: 0x1A70, symBinAddr: 0x100003560, symSize: 0x3C }
  - { offsetInCU: 0x9E48, offset: 0x9E48, size: 0x8, addend: 0x0, symName: __ZNKSt3__112basic_stringIcNS_11char_traitsIcEENS_9allocatorIcEEE4dataB7v160006Ev, symObjAddr: 0x1AAC, symBinAddr: 0x10000359C, symSize: 0x28 }
  - { offsetInCU: 0x9E6E, offset: 0x9E6E, size: 0x8, addend: 0x0, symName: __ZNSt3__18ios_base5widthB7v160006El, symObjAddr: 0x1AD4, symBinAddr: 0x1000035C4, symSize: 0x2C }
  - { offsetInCU: 0x9EB3, offset: 0x9EB3, size: 0x8, addend: 0x0, symName: __ZNSt3__112basic_stringIcNS_11char_traitsIcEENS_9allocatorIcEEEC2B7v160006Emc, symObjAddr: 0x1B00, symBinAddr: 0x1000035F0, symSize: 0x54 }
  - { offsetInCU: 0x9EFB, offset: 0x9EFB, size: 0x8, addend: 0x0, symName: __ZNSt3__117__compressed_pairINS_12basic_stringIcNS_11char_traitsIcEENS_9allocatorIcEEE5__repES5_EC1B7v160006INS_18__default_init_tagESA_EEOT_OT0_, symObjAddr: 0x1B54, symBinAddr: 0x100003644, symSize: 0x3C }
  - { offsetInCU: 0x9F53, offset: 0x9F53, size: 0x8, addend: 0x0, symName: __ZNSt3__117__compressed_pairINS_12basic_stringIcNS_11char_traitsIcEENS_9allocatorIcEEE5__repES5_EC2B7v160006INS_18__default_init_tagESA_EEOT_OT0_, symObjAddr: 0x1BA0, symBinAddr: 0x100003690, symSize: 0x3C }
  - { offsetInCU: 0x9FAB, offset: 0x9FAB, size: 0x8, addend: 0x0, symName: __ZNSt3__122__compressed_pair_elemINS_12basic_stringIcNS_11char_traitsIcEENS_9allocatorIcEEE5__repELi0ELb0EEC2B7v160006ENS_18__default_init_tagE, symObjAddr: 0x1BDC, symBinAddr: 0x1000036CC, symSize: 0x14 }
  - { offsetInCU: 0x9FE0, offset: 0x9FE0, size: 0x8, addend: 0x0, symName: __ZNSt3__122__compressed_pair_elemINS_9allocatorIcEELi1ELb1EEC2B7v160006ENS_18__default_init_tagE, symObjAddr: 0x1BF0, symBinAddr: 0x1000036E0, symSize: 0x2C }
  - { offsetInCU: 0xA015, offset: 0xA015, size: 0x8, addend: 0x0, symName: __ZNSt3__19allocatorIcEC2B7v160006Ev, symObjAddr: 0x1C1C, symBinAddr: 0x10000370C, symSize: 0x2C }
  - { offsetInCU: 0xA03F, offset: 0xA03F, size: 0x8, addend: 0x0, symName: __ZNSt3__116__non_trivial_ifILb1ENS_9allocatorIcEEEC2B7v160006Ev, symObjAddr: 0x1C48, symBinAddr: 0x100003738, symSize: 0x14 }
  - { offsetInCU: 0xA069, offset: 0xA069, size: 0x8, addend: 0x0, symName: __ZNKSt3__112basic_stringIcNS_11char_traitsIcEENS_9allocatorIcEEE13__get_pointerB7v160006Ev, symObjAddr: 0x1C70, symBinAddr: 0x100003760, symSize: 0x54 }
  - { offsetInCU: 0xA08F, offset: 0xA08F, size: 0x8, addend: 0x0, symName: __ZNKSt3__112basic_stringIcNS_11char_traitsIcEENS_9allocatorIcEEE9__is_longB7v160006Ev, symObjAddr: 0x1CC4, symBinAddr: 0x1000037B4, symSize: 0x74 }
  - { offsetInCU: 0xA0B5, offset: 0xA0B5, size: 0x8, addend: 0x0, symName: __ZNKSt3__112basic_stringIcNS_11char_traitsIcEENS_9allocatorIcEEE18__get_long_pointerB7v160006Ev, symObjAddr: 0x1D38, symBinAddr: 0x100003828, symSize: 0x28 }
  - { offsetInCU: 0xA0DB, offset: 0xA0DB, size: 0x8, addend: 0x0, symName: __ZNKSt3__112basic_stringIcNS_11char_traitsIcEENS_9allocatorIcEEE19__get_short_pointerB7v160006Ev, symObjAddr: 0x1D60, symBinAddr: 0x100003850, symSize: 0x28 }
  - { offsetInCU: 0xA101, offset: 0xA101, size: 0x8, addend: 0x0, symName: __ZNKSt3__117__compressed_pairINS_12basic_stringIcNS_11char_traitsIcEENS_9allocatorIcEEE5__repES5_E5firstB7v160006Ev, symObjAddr: 0x1D88, symBinAddr: 0x100003878, symSize: 0x24 }
  - { offsetInCU: 0xA127, offset: 0xA127, size: 0x8, addend: 0x0, symName: __ZNKSt3__122__compressed_pair_elemINS_12basic_stringIcNS_11char_traitsIcEENS_9allocatorIcEEE5__repELi0ELb0EE5__getB7v160006Ev, symObjAddr: 0x1DAC, symBinAddr: 0x10000389C, symSize: 0x14 }
  - { offsetInCU: 0xA14D, offset: 0xA14D, size: 0x8, addend: 0x0, symName: __ZNSt3__114pointer_traitsIPKcE10pointer_toB7v160006ERS1_, symObjAddr: 0x1DC0, symBinAddr: 0x1000038B0, symSize: 0x14 }
  - { offsetInCU: 0xA170, offset: 0xA170, size: 0x8, addend: 0x0, symName: __ZNSt3__119ostreambuf_iteratorIcNS_11char_traitsIcEEEC2B7v160006ERNS_13basic_ostreamIcS2_EE, symObjAddr: 0x1DD4, symBinAddr: 0x1000038C4, symSize: 0x68 }
  - { offsetInCU: 0xA1A8, offset: 0xA1A8, size: 0x8, addend: 0x0, symName: __ZNKSt3__19basic_iosIcNS_11char_traitsIcEEE5rdbufB7v160006Ev, symObjAddr: 0x1E3C, symBinAddr: 0x10000392C, symSize: 0x24 }
  - { offsetInCU: 0xA1D0, offset: 0xA1D0, size: 0x8, addend: 0x0, symName: __ZNKSt3__18ios_base5rdbufB7v160006Ev, symObjAddr: 0x1E60, symBinAddr: 0x100003950, symSize: 0x18 }
  - { offsetInCU: 0xA1F6, offset: 0xA1F6, size: 0x8, addend: 0x0, symName: __ZNSt3__111char_traitsIcE11eq_int_typeEii, symObjAddr: 0x1E78, symBinAddr: 0x100003968, symSize: 0x28 }
  - { offsetInCU: 0xA227, offset: 0xA227, size: 0x8, addend: 0x0, symName: __ZNSt3__111char_traitsIcE3eofEv, symObjAddr: 0x1EA0, symBinAddr: 0x100003990, symSize: 0x8 }
  - { offsetInCU: 0xA23B, offset: 0xA23B, size: 0x8, addend: 0x0, symName: __ZNKSt3__19basic_iosIcNS_11char_traitsIcEEE5widenB7v160006Ec, symObjAddr: 0x1EA8, symBinAddr: 0x100003998, symSize: 0x8C }
  - { offsetInCU: 0xA2A9, offset: 0xA2A9, size: 0x8, addend: 0x0, symName: __ZNKSt3__15ctypeIcE5widenB7v160006Ec, symObjAddr: 0x1F60, symBinAddr: 0x100003A50, symSize: 0x38 }
  - { offsetInCU: 0xA2DE, offset: 0xA2DE, size: 0x8, addend: 0x0, symName: __ZNSt3__18ios_base8setstateB7v160006Ej, symObjAddr: 0x1F98, symBinAddr: 0x100003A88, symSize: 0x34 }
...
