---
triple:          'arm64-apple-darwin'
binary-path:     "/Users/sombobby/Documents/Github/AlgorithmDesign2024/output/a63_\u200Bq1b_\u200Bvirus2"
relocations:
  - { offsetInCU: 0x48F0, offset: 0x48F0, size: 0x8, addend: 0x0, symName: __ZNSt3__124__put_character_sequenceB7v160006IcNS_11char_traitsIcEEEERNS_13basic_ostreamIT_T0_EES7_PKS4_m, symObjAddr: 0x28C8, symBinAddr: 0x100006D94, symSize: 0x1F4 }
  - { offsetInCU: 0x6433, offset: 0x6433, size: 0x8, addend: 0x0, symName: __ZNSt3__1lsB7v160006INS_11char_traitsIcEEEERNS_13basic_ostreamIcT_EES6_PKc, symObjAddr: 0x610, symBinAddr: 0x100004ADC, symSize: 0x48 }
  - { offsetInCU: 0x6479, offset: 0x6479, size: 0x8, addend: 0x0, symName: __ZNSt3__119__debug_db_insert_cB7v160006INS_6vectorIiNS_9allocatorIiEEEEEEvPT_, symObjAddr: 0x6E0, symBinAddr: 0x100004BAC, symSize: 0x10 }
  - { offsetInCU: 0x64AA, offset: 0x64AA, size: 0x8, addend: 0x0, symName: __ZNSt3__118__debug_db_erase_cB7v160006INS_6vectorIiNS_9allocatorIiEEEEEEvPT_, symObjAddr: 0x99C, symBinAddr: 0x100004E68, symSize: 0x10 }
  - { offsetInCU: 0x64DB, offset: 0x64DB, size: 0x8, addend: 0x0, symName: __ZNSt3__112__to_addressB7v160006IiEEPT_S2_, symObjAddr: 0xAE0, symBinAddr: 0x100004FAC, symSize: 0x14 }
  - { offsetInCU: 0x6510, offset: 0x6510, size: 0x8, addend: 0x0, symName: __ZNSt3__130__libcpp_is_constant_evaluatedB7v160006Ev, symObjAddr: 0xC44, symBinAddr: 0x100005110, symSize: 0xC }
  - { offsetInCU: 0x652D, offset: 0x652D, size: 0x8, addend: 0x0, symName: __ZNSt3__119__libcpp_deallocateB7v160006EPvmm, symObjAddr: 0xC50, symBinAddr: 0x10000511C, symSize: 0x30 }
  - { offsetInCU: 0x6575, offset: 0x6575, size: 0x8, addend: 0x0, symName: __ZNSt3__127__do_deallocate_handle_sizeB7v160006IJEEEvPvmDpT_, symObjAddr: 0xC80, symBinAddr: 0x10000514C, symSize: 0x28 }
  - { offsetInCU: 0x65B3, offset: 0x65B3, size: 0x8, addend: 0x0, symName: __ZNSt3__124__libcpp_operator_deleteB7v160006IJPvEEEvDpT_, symObjAddr: 0xCA8, symBinAddr: 0x100005174, symSize: 0x24 }
  - { offsetInCU: 0x65E8, offset: 0x65E8, size: 0x8, addend: 0x0, symName: __ZNSt3__13maxB7v160006ImEERKT_S3_S3_, symObjAddr: 0x1330, symBinAddr: 0x1000057FC, symSize: 0x2C }
  - { offsetInCU: 0x662B, offset: 0x662B, size: 0x8, addend: 0x0, symName: __ZNSt3__13minB7v160006ImEERKT_S3_S3_, symObjAddr: 0x135C, symBinAddr: 0x100005828, symSize: 0x2C }
  - { offsetInCU: 0x686F, offset: 0x686F, size: 0x8, addend: 0x0, symName: __ZNSt3__13minB7v160006ImNS_6__lessImmEEEERKT_S5_S5_T0_, symObjAddr: 0x13E8, symBinAddr: 0x1000058B4, symSize: 0x54 }
  - { offsetInCU: 0x6904, offset: 0x6904, size: 0x8, addend: 0x0, symName: __ZNSt3__120__throw_length_errorB7v160006EPKc, symObjAddr: 0x14C4, symBinAddr: 0x100005990, symSize: 0x64 }
  - { offsetInCU: 0x692C, offset: 0x692C, size: 0x8, addend: 0x0, symName: __ZNSt3__13maxB7v160006ImNS_6__lessImmEEEERKT_S5_S5_T0_, symObjAddr: 0x15A8, symBinAddr: 0x100005A74, symSize: 0x54 }
  - { offsetInCU: 0x6986, offset: 0x6986, size: 0x8, addend: 0x0, symName: __ZNSt3__119__allocate_at_leastB7v160006INS_9allocatorIiEEEENS_19__allocation_resultINS_16allocator_traitsIT_E7pointerEEERS5_m, symObjAddr: 0x170C, symBinAddr: 0x100005BD8, symSize: 0x40 }
  - { offsetInCU: 0x69C9, offset: 0x69C9, size: 0x8, addend: 0x0, symName: __ZNSt3__117__libcpp_allocateB7v160006Emm, symObjAddr: 0x18BC, symBinAddr: 0x100005D88, symSize: 0x28 }
  - { offsetInCU: 0x6A06, offset: 0x6A06, size: 0x8, addend: 0x0, symName: __ZNSt3__121__libcpp_operator_newB7v160006IJmEEEPvDpT_, symObjAddr: 0x18E4, symBinAddr: 0x100005DB0, symSize: 0x24 }
  - { offsetInCU: 0x6A3F, offset: 0x6A3F, size: 0x8, addend: 0x0, symName: __ZNSt3__142__uninitialized_allocator_move_if_noexceptB7v160006INS_9allocatorIiEENS_16reverse_iteratorIPiEES5_ivEET1_RT_T0_S9_S6_, symObjAddr: 0x196C, symBinAddr: 0x100005E38, symSize: 0xE8 }
  - { offsetInCU: 0x6ABC, offset: 0x6ABC, size: 0x8, addend: 0x0, symName: __ZNSt3__14swapB7v160006IPiEEvRT_S3_, symObjAddr: 0x1AA0, symBinAddr: 0x100005F6C, symSize: 0x3C }
  - { offsetInCU: 0x6B0D, offset: 0x6B0D, size: 0x8, addend: 0x0, symName: __ZNSt3__125__debug_db_invalidate_allB7v160006INS_6vectorIiNS_9allocatorIiEEEEEEvPT_, symObjAddr: 0x1B88, symBinAddr: 0x100006054, symSize: 0x10 }
  - { offsetInCU: 0x6B3E, offset: 0x6B3E, size: 0x8, addend: 0x0, symName: __ZNSt3__1neB7v160006IPiS1_EEbRKNS_16reverse_iteratorIT_EERKNS2_IT0_EE, symObjAddr: 0x1B98, symBinAddr: 0x100006064, symSize: 0x48 }
  - { offsetInCU: 0x6BAF, offset: 0x6BAF, size: 0x8, addend: 0x0, symName: __ZNSt3__114__construct_atB7v160006IiJiEPiEEPT_S3_DpOT0_, symObjAddr: 0x1BE0, symBinAddr: 0x1000060AC, symSize: 0x2C }
  - { offsetInCU: 0x6C1F, offset: 0x6C1F, size: 0x8, addend: 0x0, symName: __ZNSt3__112__to_addressB7v160006INS_16reverse_iteratorIPiEEvEENS_5decayIDTclsr19__to_address_helperIT_EE6__callclsr3stdE7declvalIRKS5_EEEEE4typeES7_, symObjAddr: 0x1C0C, symBinAddr: 0x1000060D8, symSize: 0x24 }
  - { offsetInCU: 0x6C55, offset: 0x6C55, size: 0x8, addend: 0x0, symName: __ZNSt3__14moveB7v160006INS_16reverse_iteratorIPiEES3_EET0_T_S5_S4_, symObjAddr: 0x1C78, symBinAddr: 0x100006144, symSize: 0x78 }
  - { offsetInCU: 0x6CD8, offset: 0x6CD8, size: 0x8, addend: 0x0, symName: __ZNSt3__16__moveB7v160006INS_17_ClassicAlgPolicyENS_16reverse_iteratorIPiEES4_S4_EENS_4pairIT0_T2_EES6_T1_S7_, symObjAddr: 0x1D60, symBinAddr: 0x10000622C, symSize: 0x64 }
  - { offsetInCU: 0x6D44, offset: 0x6D44, size: 0x8, addend: 0x0, symName: __ZNSt3__123__dispatch_copy_or_moveB7v160006INS_17_ClassicAlgPolicyENS_11__move_loopIS1_EENS_14__move_trivialENS_16reverse_iteratorIPiEES7_S7_EENS_4pairIT2_T4_EES9_T3_SA_, symObjAddr: 0x1DC4, symBinAddr: 0x100006290, symSize: 0x7C }
  - { offsetInCU: 0x6DC2, offset: 0x6DC2, size: 0x8, addend: 0x0, symName: __ZNSt3__121__unwrap_and_dispatchB7v160006INS_10__overloadINS_11__move_loopINS_17_ClassicAlgPolicyEEENS_14__move_trivialEEENS_16reverse_iteratorIPiEES9_S9_Li0EEENS_4pairIT0_T2_EESB_T1_SC_, symObjAddr: 0x1E40, symBinAddr: 0x10000630C, symSize: 0x12C }
  - { offsetInCU: 0x6E52, offset: 0x6E52, size: 0x8, addend: 0x0, symName: __ZNSt3__114__unwrap_rangeB7v160006INS_16reverse_iteratorIPiEES3_EENS_4pairIT0_S5_EET_S7_, symObjAddr: 0x1F6C, symBinAddr: 0x100006438, symSize: 0x84 }
  - { offsetInCU: 0x6FA6, offset: 0x6FA6, size: 0x8, addend: 0x0, symName: __ZNSt3__113__unwrap_iterB7v160006INS_16reverse_iteratorIPiEENS_18__unwrap_iter_implIS3_Lb0EEELi0EEEDTclsrT0_8__unwrapclsr3stdE7declvalIT_EEEES7_, symObjAddr: 0x2090, symBinAddr: 0x10000655C, symSize: 0x44 }
  - { offsetInCU: 0x6FEA, offset: 0x6FEA, size: 0x8, addend: 0x0, symName: __ZNSt3__19make_pairB7v160006INS_16reverse_iteratorIPiEES3_EENS_4pairINS_18__unwrap_ref_decayIT_E4typeENS5_IT0_E4typeEEEOS6_OS9_, symObjAddr: 0x20D4, symBinAddr: 0x1000065A0, symSize: 0x38 }
  - { offsetInCU: 0x7039, offset: 0x7039, size: 0x8, addend: 0x0, symName: __ZNSt3__114__rewrap_rangeB7v160006INS_16reverse_iteratorIPiEES3_EET_S4_T0_, symObjAddr: 0x210C, symBinAddr: 0x1000065D8, symSize: 0x5C }
  - { offsetInCU: 0x7085, offset: 0x7085, size: 0x8, addend: 0x0, symName: __ZNSt3__113__rewrap_iterB7v160006INS_16reverse_iteratorIPiEES3_NS_18__unwrap_iter_implIS3_Lb0EEEEET_S6_T0_, symObjAddr: 0x2168, symBinAddr: 0x100006634, symSize: 0x88 }
  - { offsetInCU: 0x718C, offset: 0x718C, size: 0x8, addend: 0x0, symName: __ZNSt3__122__make_exception_guardB7v160006INS_6vectorIiNS_9allocatorIiEEE16__destroy_vectorEEENS_28__exception_guard_exceptionsIT_EES7_, symObjAddr: 0x25DC, symBinAddr: 0x100006AA8, symSize: 0x40 }
  - { offsetInCU: 0x71C1, offset: 0x71C1, size: 0x8, addend: 0x0, symName: __ZNSt3__116__pad_and_outputB7v160006IcNS_11char_traitsIcEEEENS_19ostreambuf_iteratorIT_T0_EES6_PKS4_S8_S8_RNS_8ios_baseES4_, symObjAddr: 0x2B20, symBinAddr: 0x100006FEC, symSize: 0x248 }
  - { offsetInCU: 0x7290, offset: 0x7290, size: 0x8, addend: 0x0, symName: __ZNSt3__119__debug_db_insert_cB7v160006INS_12basic_stringIcNS_11char_traitsIcEENS_9allocatorIcEEEEEEvPT_, symObjAddr: 0x2FDC, symBinAddr: 0x1000074A8, symSize: 0x10 }
  - { offsetInCU: 0x72C1, offset: 0x72C1, size: 0x8, addend: 0x0, symName: __ZNSt3__112__to_addressB7v160006IKcEEPT_S3_, symObjAddr: 0x30A8, symBinAddr: 0x100007574, symSize: 0x14 }
  - { offsetInCU: 0x7329, offset: 0x7329, size: 0x8, addend: 0x0, symName: __ZNSt3__19use_facetB7v160006INS_5ctypeIcEEEERKT_RKNS_6localeE, symObjAddr: 0x3380, symBinAddr: 0x10000784C, symSize: 0x2C }
  - { offsetInCU: 0x77F8, offset: 0x77F8, size: 0x8, addend: 0x0, symName: __ZNSt3__118__constexpr_strlenB7v160006EPKc, symObjAddr: 0x3418, symBinAddr: 0x1000078E4, symSize: 0x24 }
  - { offsetInCU: 0x7A02, offset: 0x7A02, size: 0x8, addend: 0x0, symName: __ZSt28__throw_bad_array_new_lengthB7v160006v, symObjAddr: 0x1888, symBinAddr: 0x100005D54, symSize: 0x34 }
  - { offsetInCU: 0x7E85, offset: 0x7E85, size: 0x8, addend: 0x0, symName: __ZNSt3__16vectorIiNS_9allocatorIiEEE26__swap_out_circular_bufferERNS_14__split_bufferIiRS2_EE, symObjAddr: 0x115C, symBinAddr: 0x100005628, symSize: 0x118 }
  - { offsetInCU: 0x7EDA, offset: 0x7EDA, size: 0x8, addend: 0x0, symName: __Z3powB7v160006IiiENSt3__19enable_ifIXaasr3std13is_arithmeticIT_EE5valuesr3std13is_arithmeticIT0_EE5valueENS0_9__promoteIS2_S3_vEEE4type4typeES2_S3_, symObjAddr: 0x574, symBinAddr: 0x100004A40, symSize: 0x44 }
  - { offsetInCU: 0xA236, offset: 0xA236, size: 0x8, addend: 0x0, symName: __Z7reverseRKNSt3__16vectorIiNS_9allocatorIiEEEEii, symObjAddr: 0x0, symBinAddr: 0x1000044CC, symSize: 0xF4 }
  - { offsetInCU: 0xA2AB, offset: 0xA2AB, size: 0x8, addend: 0x0, symName: __ZNSt3__16vectorIiNS_9allocatorIiEEEC1B7v160006Ev, symObjAddr: 0xF4, symBinAddr: 0x1000045C0, symSize: 0x2C }
  - { offsetInCU: 0xA2D3, offset: 0xA2D3, size: 0x8, addend: 0x0, symName: __ZNSt3__16vectorIiNS_9allocatorIiEEE9push_backB7v160006ERKi, symObjAddr: 0x120, symBinAddr: 0x1000045EC, symSize: 0x6C }
  - { offsetInCU: 0xA309, offset: 0xA309, size: 0x8, addend: 0x0, symName: __ZNKSt3__16vectorIiNS_9allocatorIiEEEixB7v160006Em, symObjAddr: 0x18C, symBinAddr: 0x100004658, symSize: 0x24 }
  - { offsetInCU: 0xA33F, offset: 0xA33F, size: 0x8, addend: 0x0, symName: __ZNSt3__16vectorIiNS_9allocatorIiEEED1B7v160006Ev, symObjAddr: 0x1B0, symBinAddr: 0x10000467C, symSize: 0x2C }
  - { offsetInCU: 0xA367, offset: 0xA367, size: 0x8, addend: 0x0, symName: __Z11detectVirusRKNSt3__16vectorIiNS_9allocatorIiEEEEii, symObjAddr: 0x1E8, symBinAddr: 0x1000046B4, symSize: 0x1EC }
  - { offsetInCU: 0xA3E8, offset: 0xA3E8, size: 0x8, addend: 0x0, symName: _main, symObjAddr: 0x3D4, symBinAddr: 0x1000048A0, symSize: 0x1A0 }
  - { offsetInCU: 0xA46C, offset: 0xA46C, size: 0x8, addend: 0x0, symName: __ZNSt3__16vectorIiNS_9allocatorIiEEEC1Em, symObjAddr: 0x5B8, symBinAddr: 0x100004A84, symSize: 0x34 }
  - { offsetInCU: 0xA4A6, offset: 0xA4A6, size: 0x8, addend: 0x0, symName: __ZNSt3__16vectorIiNS_9allocatorIiEEEixB7v160006Em, symObjAddr: 0x5EC, symBinAddr: 0x100004AB8, symSize: 0x24 }
  - { offsetInCU: 0xA4DC, offset: 0xA4DC, size: 0x8, addend: 0x0, symName: __ZNSt3__16vectorIiNS_9allocatorIiEEEC2B7v160006Ev, symObjAddr: 0x658, symBinAddr: 0x100004B24, symSize: 0x4C }
  - { offsetInCU: 0xA50F, offset: 0xA50F, size: 0x8, addend: 0x0, symName: __ZNSt3__117__compressed_pairIPiNS_9allocatorIiEEEC1B7v160006IDnNS_18__default_init_tagEEEOT_OT0_, symObjAddr: 0x6A4, symBinAddr: 0x100004B70, symSize: 0x3C }
  - { offsetInCU: 0xA566, offset: 0xA566, size: 0x8, addend: 0x0, symName: __ZNSt3__117__compressed_pairIPiNS_9allocatorIiEEEC2B7v160006IDnNS_18__default_init_tagEEEOT_OT0_, symObjAddr: 0x6F0, symBinAddr: 0x100004BBC, symSize: 0x40 }
  - { offsetInCU: 0xA5BD, offset: 0xA5BD, size: 0x8, addend: 0x0, symName: __ZNSt3__122__compressed_pair_elemIPiLi0ELb0EEC2B7v160006IDnvEEOT_, symObjAddr: 0x730, symBinAddr: 0x100004BFC, symSize: 0x1C }
  - { offsetInCU: 0xA5FE, offset: 0xA5FE, size: 0x8, addend: 0x0, symName: __ZNSt3__122__compressed_pair_elemINS_9allocatorIiEELi1ELb1EEC2B7v160006ENS_18__default_init_tagE, symObjAddr: 0x74C, symBinAddr: 0x100004C18, symSize: 0x2C }
  - { offsetInCU: 0xA632, offset: 0xA632, size: 0x8, addend: 0x0, symName: __ZNSt3__19allocatorIiEC2B7v160006Ev, symObjAddr: 0x778, symBinAddr: 0x100004C44, symSize: 0x2C }
  - { offsetInCU: 0xA65B, offset: 0xA65B, size: 0x8, addend: 0x0, symName: __ZNSt3__116__non_trivial_ifILb1ENS_9allocatorIiEEEC2B7v160006Ev, symObjAddr: 0x7A4, symBinAddr: 0x100004C70, symSize: 0x14 }
  - { offsetInCU: 0xA684, offset: 0xA684, size: 0x8, addend: 0x0, symName: __ZNSt3__16vectorIiNS_9allocatorIiEEED2B7v160006Ev, symObjAddr: 0x7B8, symBinAddr: 0x100004C84, symSize: 0x3C }
  - { offsetInCU: 0xA6AD, offset: 0xA6AD, size: 0x8, addend: 0x0, symName: __ZNSt3__16vectorIiNS_9allocatorIiEEE16__destroy_vectorC1ERS3_, symObjAddr: 0x7F4, symBinAddr: 0x100004CC0, symSize: 0x34 }
  - { offsetInCU: 0xA6E5, offset: 0xA6E5, size: 0x8, addend: 0x0, symName: __ZNSt3__16vectorIiNS_9allocatorIiEEE16__destroy_vectorclB7v160006Ev, symObjAddr: 0x828, symBinAddr: 0x100004CF4, symSize: 0x9C }
  - { offsetInCU: 0xA70A, offset: 0xA70A, size: 0x8, addend: 0x0, symName: __ZNSt3__16vectorIiNS_9allocatorIiEEE16__destroy_vectorC2ERS3_, symObjAddr: 0x8C4, symBinAddr: 0x100004D90, symSize: 0x20 }
  - { offsetInCU: 0xA742, offset: 0xA742, size: 0x8, addend: 0x0, symName: __ZNKSt3__16vectorIiNS_9allocatorIiEEE17__annotate_deleteB7v160006Ev, symObjAddr: 0x8E4, symBinAddr: 0x100004DB0, symSize: 0xB8 }
  - { offsetInCU: 0xA767, offset: 0xA767, size: 0x8, addend: 0x0, symName: __ZNSt3__16vectorIiNS_9allocatorIiEEE7__clearB7v160006Ev, symObjAddr: 0x9AC, symBinAddr: 0x100004E78, symSize: 0x28 }
  - { offsetInCU: 0xA78C, offset: 0xA78C, size: 0x8, addend: 0x0, symName: __ZNSt3__116allocator_traitsINS_9allocatorIiEEE10deallocateB7v160006ERS2_Pim, symObjAddr: 0x9D4, symBinAddr: 0x100004EA0, symSize: 0x34 }
  - { offsetInCU: 0xA7CE, offset: 0xA7CE, size: 0x8, addend: 0x0, symName: __ZNSt3__16vectorIiNS_9allocatorIiEEE7__allocB7v160006Ev, symObjAddr: 0xA08, symBinAddr: 0x100004ED4, symSize: 0x28 }
  - { offsetInCU: 0xA7F3, offset: 0xA7F3, size: 0x8, addend: 0x0, symName: __ZNKSt3__16vectorIiNS_9allocatorIiEEE8capacityB7v160006Ev, symObjAddr: 0xA30, symBinAddr: 0x100004EFC, symSize: 0x40 }
  - { offsetInCU: 0xA818, offset: 0xA818, size: 0x8, addend: 0x0, symName: __ZNKSt3__16vectorIiNS_9allocatorIiEEE31__annotate_contiguous_containerB7v160006EPKvS5_S5_S5_, symObjAddr: 0xA70, symBinAddr: 0x100004F3C, symSize: 0x20 }
  - { offsetInCU: 0xA869, offset: 0xA869, size: 0x8, addend: 0x0, symName: __ZNKSt3__16vectorIiNS_9allocatorIiEEE4dataB7v160006Ev, symObjAddr: 0xA90, symBinAddr: 0x100004F5C, symSize: 0x28 }
  - { offsetInCU: 0xA88E, offset: 0xA88E, size: 0x8, addend: 0x0, symName: __ZNKSt3__16vectorIiNS_9allocatorIiEEE4sizeB7v160006Ev, symObjAddr: 0xAB8, symBinAddr: 0x100004F84, symSize: 0x28 }
  - { offsetInCU: 0xA8B3, offset: 0xA8B3, size: 0x8, addend: 0x0, symName: __ZNSt3__16vectorIiNS_9allocatorIiEEE22__base_destruct_at_endB7v160006EPi, symObjAddr: 0xAF4, symBinAddr: 0x100004FC0, symSize: 0xA0 }
  - { offsetInCU: 0xA8F6, offset: 0xA8F6, size: 0x8, addend: 0x0, symName: __ZNSt3__116allocator_traitsINS_9allocatorIiEEE7destroyB7v160006IivEEvRS2_PT_, symObjAddr: 0xB94, symBinAddr: 0x100005060, symSize: 0x2C }
  - { offsetInCU: 0xA933, offset: 0xA933, size: 0x8, addend: 0x0, symName: __ZNSt3__19allocatorIiE7destroyB7v160006EPi, symObjAddr: 0xBC0, symBinAddr: 0x10000508C, symSize: 0x14 }
  - { offsetInCU: 0xA966, offset: 0xA966, size: 0x8, addend: 0x0, symName: __ZNSt3__19allocatorIiE10deallocateB7v160006EPim, symObjAddr: 0xBD4, symBinAddr: 0x1000050A0, symSize: 0x70 }
  - { offsetInCU: 0xA9A7, offset: 0xA9A7, size: 0x8, addend: 0x0, symName: __ZNSt3__117__compressed_pairIPiNS_9allocatorIiEEE6secondB7v160006Ev, symObjAddr: 0xCCC, symBinAddr: 0x100005198, symSize: 0x24 }
  - { offsetInCU: 0xA9CC, offset: 0xA9CC, size: 0x8, addend: 0x0, symName: __ZNSt3__122__compressed_pair_elemINS_9allocatorIiEELi1ELb1EE5__getB7v160006Ev, symObjAddr: 0xCF0, symBinAddr: 0x1000051BC, symSize: 0x14 }
  - { offsetInCU: 0xA9F1, offset: 0xA9F1, size: 0x8, addend: 0x0, symName: __ZNKSt3__16vectorIiNS_9allocatorIiEEE9__end_capB7v160006Ev, symObjAddr: 0xD04, symBinAddr: 0x1000051D0, symSize: 0x28 }
  - { offsetInCU: 0xAA16, offset: 0xAA16, size: 0x8, addend: 0x0, symName: __ZNKSt3__117__compressed_pairIPiNS_9allocatorIiEEE5firstB7v160006Ev, symObjAddr: 0xD2C, symBinAddr: 0x1000051F8, symSize: 0x24 }
  - { offsetInCU: 0xAA3B, offset: 0xAA3B, size: 0x8, addend: 0x0, symName: __ZNKSt3__122__compressed_pair_elemIPiLi0ELb0EE5__getB7v160006Ev, symObjAddr: 0xD50, symBinAddr: 0x10000521C, symSize: 0x14 }
  - { offsetInCU: 0xAA60, offset: 0xAA60, size: 0x8, addend: 0x0, symName: __ZNSt3__16vectorIiNS_9allocatorIiEEE9__end_capB7v160006Ev, symObjAddr: 0xD64, symBinAddr: 0x100005230, symSize: 0x28 }
  - { offsetInCU: 0xAA85, offset: 0xAA85, size: 0x8, addend: 0x0, symName: __ZNSt3__16vectorIiNS_9allocatorIiEEE22__construct_one_at_endB7v160006IJRKiEEEvDpOT_, symObjAddr: 0xD8C, symBinAddr: 0x100005258, symSize: 0x98 }
  - { offsetInCU: 0xAAD2, offset: 0xAAD2, size: 0x8, addend: 0x0, symName: __ZNSt3__16vectorIiNS_9allocatorIiEEE21__push_back_slow_pathIRKiEEvOT_, symObjAddr: 0xE24, symBinAddr: 0x1000052F0, symSize: 0xE0 }
  - { offsetInCU: 0xAB2F, offset: 0xAB2F, size: 0x8, addend: 0x0, symName: __ZNSt3__117__compressed_pairIPiNS_9allocatorIiEEE5firstB7v160006Ev, symObjAddr: 0xF04, symBinAddr: 0x1000053D0, symSize: 0x24 }
  - { offsetInCU: 0xAB54, offset: 0xAB54, size: 0x8, addend: 0x0, symName: __ZNSt3__122__compressed_pair_elemIPiLi0ELb0EE5__getB7v160006Ev, symObjAddr: 0xF28, symBinAddr: 0x1000053F4, symSize: 0x14 }
  - { offsetInCU: 0xAB92, offset: 0xAB92, size: 0x8, addend: 0x0, symName: __ZNSt3__16vectorIiNS_9allocatorIiEEE21_ConstructTransactionC1B7v160006ERS3_m, symObjAddr: 0xF3C, symBinAddr: 0x100005408, symSize: 0x3C }
  - { offsetInCU: 0xABD9, offset: 0xABD9, size: 0x8, addend: 0x0, symName: __ZNSt3__116allocator_traitsINS_9allocatorIiEEE9constructB7v160006IiJRKiEvEEvRS2_PT_DpOT0_, symObjAddr: 0xF78, symBinAddr: 0x100005444, symSize: 0x34 }
  - { offsetInCU: 0xAC30, offset: 0xAC30, size: 0x8, addend: 0x0, symName: __ZNSt3__16vectorIiNS_9allocatorIiEEE21_ConstructTransactionD1B7v160006Ev, symObjAddr: 0xFAC, symBinAddr: 0x100005478, symSize: 0x2C }
  - { offsetInCU: 0xAC59, offset: 0xAC59, size: 0x8, addend: 0x0, symName: __ZNSt3__16vectorIiNS_9allocatorIiEEE21_ConstructTransactionC2B7v160006ERS3_m, symObjAddr: 0xFD8, symBinAddr: 0x1000054A4, symSize: 0x44 }
  - { offsetInCU: 0xACA0, offset: 0xACA0, size: 0x8, addend: 0x0, symName: __ZNSt3__19allocatorIiE9constructB7v160006IiJRKiEEEvPT_DpOT0_, symObjAddr: 0x101C, symBinAddr: 0x1000054E8, symSize: 0x28 }
  - { offsetInCU: 0xACF5, offset: 0xACF5, size: 0x8, addend: 0x0, symName: __ZNSt3__16vectorIiNS_9allocatorIiEEE21_ConstructTransactionD2B7v160006Ev, symObjAddr: 0x1044, symBinAddr: 0x100005510, symSize: 0x20 }
  - { offsetInCU: 0xAD1D, offset: 0xAD1D, size: 0x8, addend: 0x0, symName: __ZNKSt3__16vectorIiNS_9allocatorIiEEE11__recommendB7v160006Em, symObjAddr: 0x1064, symBinAddr: 0x100005530, symSize: 0xB4 }
  - { offsetInCU: 0xAD71, offset: 0xAD71, size: 0x8, addend: 0x0, symName: __ZNSt3__114__split_bufferIiRNS_9allocatorIiEEEC1EmmS3_, symObjAddr: 0x1118, symBinAddr: 0x1000055E4, symSize: 0x44 }
  - { offsetInCU: 0xADC6, offset: 0xADC6, size: 0x8, addend: 0x0, symName: __ZNSt3__114__split_bufferIiRNS_9allocatorIiEEED1Ev, symObjAddr: 0x1274, symBinAddr: 0x100005740, symSize: 0x2C }
  - { offsetInCU: 0xADF0, offset: 0xADF0, size: 0x8, addend: 0x0, symName: __ZNKSt3__16vectorIiNS_9allocatorIiEEE8max_sizeEv, symObjAddr: 0x12A0, symBinAddr: 0x10000576C, symSize: 0x74 }
  - { offsetInCU: 0xAE17, offset: 0xAE17, size: 0x8, addend: 0x0, symName: __ZNKSt3__16vectorIiNS_9allocatorIiEEE20__throw_length_errorB7v160006Ev, symObjAddr: 0x1314, symBinAddr: 0x1000057E0, symSize: 0x1C }
  - { offsetInCU: 0xAE46, offset: 0xAE46, size: 0x8, addend: 0x0, symName: __ZNSt3__116allocator_traitsINS_9allocatorIiEEE8max_sizeB7v160006IS2_vEEmRKS2_, symObjAddr: 0x1388, symBinAddr: 0x100005854, symSize: 0x24 }
  - { offsetInCU: 0xAE74, offset: 0xAE74, size: 0x8, addend: 0x0, symName: __ZNKSt3__16vectorIiNS_9allocatorIiEEE7__allocB7v160006Ev, symObjAddr: 0x13AC, symBinAddr: 0x100005878, symSize: 0x28 }
  - { offsetInCU: 0xAE99, offset: 0xAE99, size: 0x8, addend: 0x0, symName: __ZNSt3__114numeric_limitsIlE3maxB7v160006Ev, symObjAddr: 0x13D4, symBinAddr: 0x1000058A0, symSize: 0x14 }
  - { offsetInCU: 0xAEC1, offset: 0xAEC1, size: 0x8, addend: 0x0, symName: __ZNKSt3__16__lessImmEclB7v160006ERKmS3_, symObjAddr: 0x143C, symBinAddr: 0x100005908, symSize: 0x34 }
  - { offsetInCU: 0xAF02, offset: 0xAF02, size: 0x8, addend: 0x0, symName: __ZNKSt3__19allocatorIiE8max_sizeB7v160006Ev, symObjAddr: 0x1470, symBinAddr: 0x10000593C, symSize: 0x14 }
  - { offsetInCU: 0xAF27, offset: 0xAF27, size: 0x8, addend: 0x0, symName: __ZNKSt3__117__compressed_pairIPiNS_9allocatorIiEEE6secondB7v160006Ev, symObjAddr: 0x1484, symBinAddr: 0x100005950, symSize: 0x24 }
  - { offsetInCU: 0xAF4C, offset: 0xAF4C, size: 0x8, addend: 0x0, symName: __ZNKSt3__122__compressed_pair_elemINS_9allocatorIiEELi1ELb1EE5__getB7v160006Ev, symObjAddr: 0x14A8, symBinAddr: 0x100005974, symSize: 0x14 }
  - { offsetInCU: 0xAF71, offset: 0xAF71, size: 0x8, addend: 0x0, symName: __ZNSt3__123__libcpp_numeric_limitsIlLb1EE3maxB7v160006Ev, symObjAddr: 0x14BC, symBinAddr: 0x100005988, symSize: 0x8 }
  - { offsetInCU: 0xAF85, offset: 0xAF85, size: 0x8, addend: 0x0, symName: __ZNSt12length_errorC1B7v160006EPKc, symObjAddr: 0x1528, symBinAddr: 0x1000059F4, symSize: 0x34 }
  - { offsetInCU: 0xAFBC, offset: 0xAFBC, size: 0x8, addend: 0x0, symName: __ZNSt12length_errorC2B7v160006EPKc, symObjAddr: 0x155C, symBinAddr: 0x100005A28, symSize: 0x4C }
  - { offsetInCU: 0xAFF3, offset: 0xAFF3, size: 0x8, addend: 0x0, symName: __ZNSt3__114__split_bufferIiRNS_9allocatorIiEEEC2EmmS3_, symObjAddr: 0x15FC, symBinAddr: 0x100005AC8, symSize: 0xD4 }
  - { offsetInCU: 0xB066, offset: 0xB066, size: 0x8, addend: 0x0, symName: __ZNSt3__117__compressed_pairIPiRNS_9allocatorIiEEEC1B7v160006IDnS4_EEOT_OT0_, symObjAddr: 0x16D0, symBinAddr: 0x100005B9C, symSize: 0x3C }
  - { offsetInCU: 0xB0BD, offset: 0xB0BD, size: 0x8, addend: 0x0, symName: __ZNSt3__114__split_bufferIiRNS_9allocatorIiEEE7__allocB7v160006Ev, symObjAddr: 0x174C, symBinAddr: 0x100005C18, symSize: 0x28 }
  - { offsetInCU: 0xB0E2, offset: 0xB0E2, size: 0x8, addend: 0x0, symName: __ZNSt3__114__split_bufferIiRNS_9allocatorIiEEE9__end_capB7v160006Ev, symObjAddr: 0x1774, symBinAddr: 0x100005C40, symSize: 0x28 }
  - { offsetInCU: 0xB107, offset: 0xB107, size: 0x8, addend: 0x0, symName: __ZNSt3__117__compressed_pairIPiRNS_9allocatorIiEEEC2B7v160006IDnS4_EEOT_OT0_, symObjAddr: 0x179C, symBinAddr: 0x100005C68, symSize: 0x48 }
  - { offsetInCU: 0xB15E, offset: 0xB15E, size: 0x8, addend: 0x0, symName: __ZNSt3__122__compressed_pair_elemIRNS_9allocatorIiEELi1ELb0EEC2B7v160006IS3_vEEOT_, symObjAddr: 0x17E4, symBinAddr: 0x100005CB0, symSize: 0x20 }
  - { offsetInCU: 0xB19F, offset: 0xB19F, size: 0x8, addend: 0x0, symName: __ZNSt3__19allocatorIiE8allocateB7v160006Em, symObjAddr: 0x1804, symBinAddr: 0x100005CD0, symSize: 0x84 }
  - { offsetInCU: 0xB1D2, offset: 0xB1D2, size: 0x8, addend: 0x0, symName: __ZNSt3__117__compressed_pairIPiRNS_9allocatorIiEEE6secondB7v160006Ev, symObjAddr: 0x1908, symBinAddr: 0x100005DD4, symSize: 0x28 }
  - { offsetInCU: 0xB1F7, offset: 0xB1F7, size: 0x8, addend: 0x0, symName: __ZNSt3__122__compressed_pair_elemIRNS_9allocatorIiEELi1ELb0EE5__getB7v160006Ev, symObjAddr: 0x1930, symBinAddr: 0x100005DFC, symSize: 0x18 }
  - { offsetInCU: 0xB21C, offset: 0xB21C, size: 0x8, addend: 0x0, symName: __ZNSt3__117__compressed_pairIPiRNS_9allocatorIiEEE5firstB7v160006Ev, symObjAddr: 0x1948, symBinAddr: 0x100005E14, symSize: 0x24 }
  - { offsetInCU: 0xB241, offset: 0xB241, size: 0x8, addend: 0x0, symName: __ZNSt3__116reverse_iteratorIPiEC1B7v160006ES1_, symObjAddr: 0x1A54, symBinAddr: 0x100005F20, symSize: 0x34 }
  - { offsetInCU: 0xB278, offset: 0xB278, size: 0x8, addend: 0x0, symName: __ZNKSt3__116reverse_iteratorIPiE4baseB7v160006Ev, symObjAddr: 0x1A88, symBinAddr: 0x100005F54, symSize: 0x18 }
  - { offsetInCU: 0xB29D, offset: 0xB29D, size: 0x8, addend: 0x0, symName: __ZNKSt3__16vectorIiNS_9allocatorIiEEE14__annotate_newB7v160006Em, symObjAddr: 0x1ADC, symBinAddr: 0x100005FA8, symSize: 0xAC }
  - { offsetInCU: 0xB2D1, offset: 0xB2D1, size: 0x8, addend: 0x0, symName: __ZNKSt3__116reverse_iteratorIPiEdeB7v160006Ev, symObjAddr: 0x1C30, symBinAddr: 0x1000060FC, symSize: 0x28 }
  - { offsetInCU: 0xB304, offset: 0xB304, size: 0x8, addend: 0x0, symName: __ZNSt3__116reverse_iteratorIPiEppB7v160006Ev, symObjAddr: 0x1C58, symBinAddr: 0x100006124, symSize: 0x20 }
  - { offsetInCU: 0xB32E, offset: 0xB32E, size: 0x8, addend: 0x0, symName: __ZNSt3__119__to_address_helperINS_16reverse_iteratorIPiEEvE6__callB7v160006ERKS3_, symObjAddr: 0x1CF0, symBinAddr: 0x1000061BC, symSize: 0x4C }
  - { offsetInCU: 0xB351, offset: 0xB351, size: 0x8, addend: 0x0, symName: __ZNKSt3__116reverse_iteratorIPiEptB7v160006Ev, symObjAddr: 0x1D3C, symBinAddr: 0x100006208, symSize: 0x24 }
  - { offsetInCU: 0xB399, offset: 0xB399, size: 0x8, addend: 0x0, symName: __ZNKSt3__111__move_loopINS_17_ClassicAlgPolicyEEclB7v160006INS_16reverse_iteratorIPiEES6_S6_EENS_4pairIT_T1_EES8_T0_S9_, symObjAddr: 0x1FF0, symBinAddr: 0x1000064BC, symSize: 0xA0 }
  - { offsetInCU: 0xB408, offset: 0xB408, size: 0x8, addend: 0x0, symName: __ZNSt3__18_IterOpsINS_17_ClassicAlgPolicyEE11__iter_moveB7v160006IRNS_16reverse_iteratorIPiEEEENS_9enable_ifIXsr12is_referenceIDTdeclsr3stdE7declvalIRT_EEEEE5valueEDTclsr3stdE4movedeclsr3stdE7declvalISA_EEEEE4typeEOS9_, symObjAddr: 0x21F0, symBinAddr: 0x1000066BC, symSize: 0x28 }
  - { offsetInCU: 0xB434, offset: 0xB434, size: 0x8, addend: 0x0, symName: __ZNSt3__18_IterOpsINS_17_ClassicAlgPolicyEE25__validate_iter_referenceB7v160006IRNS_16reverse_iteratorIPiEEEEvv, symObjAddr: 0x2218, symBinAddr: 0x1000066E4, symSize: 0x4 }
  - { offsetInCU: 0xB452, offset: 0xB452, size: 0x8, addend: 0x0, symName: __ZNSt3__118__unwrap_iter_implINS_16reverse_iteratorIPiEELb0EE8__unwrapB7v160006ES3_, symObjAddr: 0x221C, symBinAddr: 0x1000066E8, symSize: 0x24 }
  - { offsetInCU: 0xB475, offset: 0xB475, size: 0x8, addend: 0x0, symName: __ZNSt3__14pairINS_16reverse_iteratorIPiEES3_EC1B7v160006ERKS3_S6_, symObjAddr: 0x2240, symBinAddr: 0x10000670C, symSize: 0x3C }
  - { offsetInCU: 0xB4BA, offset: 0xB4BA, size: 0x8, addend: 0x0, symName: __ZNSt3__14pairINS_16reverse_iteratorIPiEES3_EC2B7v160006ERKS3_S6_, symObjAddr: 0x227C, symBinAddr: 0x100006748, symSize: 0x34 }
  - { offsetInCU: 0xB4FF, offset: 0xB4FF, size: 0x8, addend: 0x0, symName: __ZNSt3__118__unwrap_iter_implINS_16reverse_iteratorIPiEELb0EE8__rewrapB7v160006ES3_S3_, symObjAddr: 0x22B0, symBinAddr: 0x10000677C, symSize: 0x2C }
  - { offsetInCU: 0xB52D, offset: 0xB52D, size: 0x8, addend: 0x0, symName: __ZNSt3__116reverse_iteratorIPiEC2B7v160006ES1_, symObjAddr: 0x22DC, symBinAddr: 0x1000067A8, symSize: 0x28 }
  - { offsetInCU: 0xB564, offset: 0xB564, size: 0x8, addend: 0x0, symName: __ZNSt3__114__split_bufferIiRNS_9allocatorIiEEED2Ev, symObjAddr: 0x2304, symBinAddr: 0x1000067D0, symSize: 0x80 }
  - { offsetInCU: 0xB58F, offset: 0xB58F, size: 0x8, addend: 0x0, symName: __ZNSt3__114__split_bufferIiRNS_9allocatorIiEEE5clearB7v160006Ev, symObjAddr: 0x2384, symBinAddr: 0x100006850, symSize: 0x28 }
  - { offsetInCU: 0xB5B4, offset: 0xB5B4, size: 0x8, addend: 0x0, symName: __ZNKSt3__114__split_bufferIiRNS_9allocatorIiEEE8capacityB7v160006Ev, symObjAddr: 0x23AC, symBinAddr: 0x100006878, symSize: 0x40 }
  - { offsetInCU: 0xB5D9, offset: 0xB5D9, size: 0x8, addend: 0x0, symName: __ZNSt3__114__split_bufferIiRNS_9allocatorIiEEE17__destruct_at_endB7v160006EPi, symObjAddr: 0x23EC, symBinAddr: 0x1000068B8, symSize: 0x2C }
  - { offsetInCU: 0xB60B, offset: 0xB60B, size: 0x8, addend: 0x0, symName: __ZNSt3__114__split_bufferIiRNS_9allocatorIiEEE17__destruct_at_endB7v160006EPiNS_17integral_constantIbLb0EEE, symObjAddr: 0x2418, symBinAddr: 0x1000068E4, symSize: 0x94 }
  - { offsetInCU: 0xB64B, offset: 0xB64B, size: 0x8, addend: 0x0, symName: __ZNKSt3__114__split_bufferIiRNS_9allocatorIiEEE9__end_capB7v160006Ev, symObjAddr: 0x24AC, symBinAddr: 0x100006978, symSize: 0x28 }
  - { offsetInCU: 0xB670, offset: 0xB670, size: 0x8, addend: 0x0, symName: __ZNKSt3__117__compressed_pairIPiRNS_9allocatorIiEEE5firstB7v160006Ev, symObjAddr: 0x24D4, symBinAddr: 0x1000069A0, symSize: 0x24 }
  - { offsetInCU: 0xB695, offset: 0xB695, size: 0x8, addend: 0x0, symName: __ZNSt3__16vectorIiNS_9allocatorIiEEEC2Em, symObjAddr: 0x24F8, symBinAddr: 0x1000069C4, symSize: 0xE4 }
  - { offsetInCU: 0xB6E4, offset: 0xB6E4, size: 0x8, addend: 0x0, symName: __ZNSt3__16vectorIiNS_9allocatorIiEEE11__vallocateB7v160006Em, symObjAddr: 0x261C, symBinAddr: 0x100006AE8, symSize: 0xAC }
  - { offsetInCU: 0xB726, offset: 0xB726, size: 0x8, addend: 0x0, symName: __ZNSt3__16vectorIiNS_9allocatorIiEEE18__construct_at_endEm, symObjAddr: 0x26C8, symBinAddr: 0x100006B94, symSize: 0xD0 }
  - { offsetInCU: 0xB798, offset: 0xB798, size: 0x8, addend: 0x0, symName: __ZNSt3__128__exception_guard_exceptionsINS_6vectorIiNS_9allocatorIiEEE16__destroy_vectorEE10__completeB7v160006Ev, symObjAddr: 0x2798, symBinAddr: 0x100006C64, symSize: 0x1C }
  - { offsetInCU: 0xB7BD, offset: 0xB7BD, size: 0x8, addend: 0x0, symName: __ZNSt3__128__exception_guard_exceptionsINS_6vectorIiNS_9allocatorIiEEE16__destroy_vectorEED1B7v160006Ev, symObjAddr: 0x27B4, symBinAddr: 0x100006C80, symSize: 0x2C }
  - { offsetInCU: 0xB7E6, offset: 0xB7E6, size: 0x8, addend: 0x0, symName: __ZNSt3__128__exception_guard_exceptionsINS_6vectorIiNS_9allocatorIiEEE16__destroy_vectorEEC1B7v160006ES5_, symObjAddr: 0x27E0, symBinAddr: 0x100006CAC, symSize: 0x34 }
  - { offsetInCU: 0xB81D, offset: 0xB81D, size: 0x8, addend: 0x0, symName: __ZNSt3__128__exception_guard_exceptionsINS_6vectorIiNS_9allocatorIiEEE16__destroy_vectorEEC2B7v160006ES5_, symObjAddr: 0x2814, symBinAddr: 0x100006CE0, symSize: 0x24 }
  - { offsetInCU: 0xB854, offset: 0xB854, size: 0x8, addend: 0x0, symName: __ZNSt3__116allocator_traitsINS_9allocatorIiEEE9constructB7v160006IiJEvEEvRS2_PT_DpOT0_, symObjAddr: 0x2838, symBinAddr: 0x100006D04, symSize: 0x2C }
  - { offsetInCU: 0xB896, offset: 0xB896, size: 0x8, addend: 0x0, symName: __ZNSt3__19allocatorIiE9constructB7v160006IiJEEEvPT_DpOT0_, symObjAddr: 0x2864, symBinAddr: 0x100006D30, symSize: 0x1C }
  - { offsetInCU: 0xB8D7, offset: 0xB8D7, size: 0x8, addend: 0x0, symName: __ZNSt3__128__exception_guard_exceptionsINS_6vectorIiNS_9allocatorIiEEE16__destroy_vectorEED2B7v160006Ev, symObjAddr: 0x2880, symBinAddr: 0x100006D4C, symSize: 0x48 }
  - { offsetInCU: 0xB900, offset: 0xB900, size: 0x8, addend: 0x0, symName: __ZNSt3__111char_traitsIcE6lengthEPKc, symObjAddr: 0x2ABC, symBinAddr: 0x100006F88, symSize: 0x48 }
  - { offsetInCU: 0xB941, offset: 0xB941, size: 0x8, addend: 0x0, symName: __ZNKSt3__113basic_ostreamIcNS_11char_traitsIcEEE6sentrycvbB7v160006Ev, symObjAddr: 0x2B04, symBinAddr: 0x100006FD0, symSize: 0x1C }
  - { offsetInCU: 0xB966, offset: 0xB966, size: 0x8, addend: 0x0, symName: __ZNSt3__119ostreambuf_iteratorIcNS_11char_traitsIcEEEC1B7v160006ERNS_13basic_ostreamIcS2_EE, symObjAddr: 0x2D68, symBinAddr: 0x100007234, symSize: 0x34 }
  - { offsetInCU: 0xB99D, offset: 0xB99D, size: 0x8, addend: 0x0, symName: __ZNKSt3__18ios_base5flagsB7v160006Ev, symObjAddr: 0x2D9C, symBinAddr: 0x100007268, symSize: 0x18 }
  - { offsetInCU: 0xB9C3, offset: 0xB9C3, size: 0x8, addend: 0x0, symName: __ZNKSt3__19basic_iosIcNS_11char_traitsIcEEE4fillB7v160006Ev, symObjAddr: 0x2DB4, symBinAddr: 0x100007280, symSize: 0x64 }
  - { offsetInCU: 0xB9EA, offset: 0xB9EA, size: 0x8, addend: 0x0, symName: __ZNKSt3__119ostreambuf_iteratorIcNS_11char_traitsIcEEE6failedB7v160006Ev, symObjAddr: 0x2E18, symBinAddr: 0x1000072E4, symSize: 0x24 }
  - { offsetInCU: 0xBA0F, offset: 0xBA0F, size: 0x8, addend: 0x0, symName: __ZNSt3__19basic_iosIcNS_11char_traitsIcEEE8setstateB7v160006Ej, symObjAddr: 0x2E3C, symBinAddr: 0x100007308, symSize: 0x2C }
  - { offsetInCU: 0xBA43, offset: 0xBA43, size: 0x8, addend: 0x0, symName: __ZNKSt3__18ios_base5widthB7v160006Ev, symObjAddr: 0x2E68, symBinAddr: 0x100007334, symSize: 0x18 }
  - { offsetInCU: 0xBA6A, offset: 0xBA6A, size: 0x8, addend: 0x0, symName: __ZNSt3__115basic_streambufIcNS_11char_traitsIcEEE5sputnB7v160006EPKcl, symObjAddr: 0x2E80, symBinAddr: 0x10000734C, symSize: 0x3C }
  - { offsetInCU: 0xBAAB, offset: 0xBAAB, size: 0x8, addend: 0x0, symName: __ZNSt3__112basic_stringIcNS_11char_traitsIcEENS_9allocatorIcEEEC1B7v160006Emc, symObjAddr: 0x2EBC, symBinAddr: 0x100007388, symSize: 0x3C }
  - { offsetInCU: 0xBAF2, offset: 0xBAF2, size: 0x8, addend: 0x0, symName: __ZNKSt3__112basic_stringIcNS_11char_traitsIcEENS_9allocatorIcEEE4dataB7v160006Ev, symObjAddr: 0x2EF8, symBinAddr: 0x1000073C4, symSize: 0x28 }
  - { offsetInCU: 0xBB17, offset: 0xBB17, size: 0x8, addend: 0x0, symName: __ZNSt3__18ios_base5widthB7v160006El, symObjAddr: 0x2F20, symBinAddr: 0x1000073EC, symSize: 0x2C }
  - { offsetInCU: 0xBB5C, offset: 0xBB5C, size: 0x8, addend: 0x0, symName: __ZNSt3__112basic_stringIcNS_11char_traitsIcEENS_9allocatorIcEEEC2B7v160006Emc, symObjAddr: 0x2F4C, symBinAddr: 0x100007418, symSize: 0x54 }
  - { offsetInCU: 0xBBA3, offset: 0xBBA3, size: 0x8, addend: 0x0, symName: __ZNSt3__117__compressed_pairINS_12basic_stringIcNS_11char_traitsIcEENS_9allocatorIcEEE5__repES5_EC1B7v160006INS_18__default_init_tagESA_EEOT_OT0_, symObjAddr: 0x2FA0, symBinAddr: 0x10000746C, symSize: 0x3C }
  - { offsetInCU: 0xBBFA, offset: 0xBBFA, size: 0x8, addend: 0x0, symName: __ZNSt3__117__compressed_pairINS_12basic_stringIcNS_11char_traitsIcEENS_9allocatorIcEEE5__repES5_EC2B7v160006INS_18__default_init_tagESA_EEOT_OT0_, symObjAddr: 0x2FEC, symBinAddr: 0x1000074B8, symSize: 0x3C }
  - { offsetInCU: 0xBC51, offset: 0xBC51, size: 0x8, addend: 0x0, symName: __ZNSt3__122__compressed_pair_elemINS_12basic_stringIcNS_11char_traitsIcEENS_9allocatorIcEEE5__repELi0ELb0EEC2B7v160006ENS_18__default_init_tagE, symObjAddr: 0x3028, symBinAddr: 0x1000074F4, symSize: 0x14 }
  - { offsetInCU: 0xBC85, offset: 0xBC85, size: 0x8, addend: 0x0, symName: __ZNSt3__122__compressed_pair_elemINS_9allocatorIcEELi1ELb1EEC2B7v160006ENS_18__default_init_tagE, symObjAddr: 0x303C, symBinAddr: 0x100007508, symSize: 0x2C }
  - { offsetInCU: 0xBCB9, offset: 0xBCB9, size: 0x8, addend: 0x0, symName: __ZNSt3__19allocatorIcEC2B7v160006Ev, symObjAddr: 0x3068, symBinAddr: 0x100007534, symSize: 0x2C }
  - { offsetInCU: 0xBCE2, offset: 0xBCE2, size: 0x8, addend: 0x0, symName: __ZNSt3__116__non_trivial_ifILb1ENS_9allocatorIcEEEC2B7v160006Ev, symObjAddr: 0x3094, symBinAddr: 0x100007560, symSize: 0x14 }
  - { offsetInCU: 0xBD0B, offset: 0xBD0B, size: 0x8, addend: 0x0, symName: __ZNKSt3__112basic_stringIcNS_11char_traitsIcEENS_9allocatorIcEEE13__get_pointerB7v160006Ev, symObjAddr: 0x30BC, symBinAddr: 0x100007588, symSize: 0x54 }
  - { offsetInCU: 0xBD30, offset: 0xBD30, size: 0x8, addend: 0x0, symName: __ZNKSt3__112basic_stringIcNS_11char_traitsIcEENS_9allocatorIcEEE9__is_longB7v160006Ev, symObjAddr: 0x3110, symBinAddr: 0x1000075DC, symSize: 0x74 }
  - { offsetInCU: 0xBD55, offset: 0xBD55, size: 0x8, addend: 0x0, symName: __ZNKSt3__112basic_stringIcNS_11char_traitsIcEENS_9allocatorIcEEE18__get_long_pointerB7v160006Ev, symObjAddr: 0x3184, symBinAddr: 0x100007650, symSize: 0x28 }
  - { offsetInCU: 0xBD7A, offset: 0xBD7A, size: 0x8, addend: 0x0, symName: __ZNKSt3__112basic_stringIcNS_11char_traitsIcEENS_9allocatorIcEEE19__get_short_pointerB7v160006Ev, symObjAddr: 0x31AC, symBinAddr: 0x100007678, symSize: 0x28 }
  - { offsetInCU: 0xBD9F, offset: 0xBD9F, size: 0x8, addend: 0x0, symName: __ZNKSt3__117__compressed_pairINS_12basic_stringIcNS_11char_traitsIcEENS_9allocatorIcEEE5__repES5_E5firstB7v160006Ev, symObjAddr: 0x31D4, symBinAddr: 0x1000076A0, symSize: 0x24 }
  - { offsetInCU: 0xBDC4, offset: 0xBDC4, size: 0x8, addend: 0x0, symName: __ZNKSt3__122__compressed_pair_elemINS_12basic_stringIcNS_11char_traitsIcEENS_9allocatorIcEEE5__repELi0ELb0EE5__getB7v160006Ev, symObjAddr: 0x31F8, symBinAddr: 0x1000076C4, symSize: 0x14 }
  - { offsetInCU: 0xBDE9, offset: 0xBDE9, size: 0x8, addend: 0x0, symName: __ZNSt3__114pointer_traitsIPKcE10pointer_toB7v160006ERS1_, symObjAddr: 0x320C, symBinAddr: 0x1000076D8, symSize: 0x14 }
  - { offsetInCU: 0xBE0C, offset: 0xBE0C, size: 0x8, addend: 0x0, symName: __ZNSt3__119ostreambuf_iteratorIcNS_11char_traitsIcEEEC2B7v160006ERNS_13basic_ostreamIcS2_EE, symObjAddr: 0x3220, symBinAddr: 0x1000076EC, symSize: 0x68 }
  - { offsetInCU: 0xBE42, offset: 0xBE42, size: 0x8, addend: 0x0, symName: __ZNKSt3__19basic_iosIcNS_11char_traitsIcEEE5rdbufB7v160006Ev, symObjAddr: 0x3288, symBinAddr: 0x100007754, symSize: 0x24 }
  - { offsetInCU: 0xBE69, offset: 0xBE69, size: 0x8, addend: 0x0, symName: __ZNKSt3__18ios_base5rdbufB7v160006Ev, symObjAddr: 0x32AC, symBinAddr: 0x100007778, symSize: 0x18 }
  - { offsetInCU: 0xBE8E, offset: 0xBE8E, size: 0x8, addend: 0x0, symName: __ZNSt3__111char_traitsIcE11eq_int_typeEii, symObjAddr: 0x32C4, symBinAddr: 0x100007790, symSize: 0x28 }
  - { offsetInCU: 0xBEBF, offset: 0xBEBF, size: 0x8, addend: 0x0, symName: __ZNSt3__111char_traitsIcE3eofEv, symObjAddr: 0x32EC, symBinAddr: 0x1000077B8, symSize: 0x8 }
  - { offsetInCU: 0xBED2, offset: 0xBED2, size: 0x8, addend: 0x0, symName: __ZNKSt3__19basic_iosIcNS_11char_traitsIcEEE5widenB7v160006Ec, symObjAddr: 0x32F4, symBinAddr: 0x1000077C0, symSize: 0x8C }
  - { offsetInCU: 0xBF3F, offset: 0xBF3F, size: 0x8, addend: 0x0, symName: __ZNKSt3__15ctypeIcE5widenB7v160006Ec, symObjAddr: 0x33AC, symBinAddr: 0x100007878, symSize: 0x38 }
  - { offsetInCU: 0xBF72, offset: 0xBF72, size: 0x8, addend: 0x0, symName: __ZNSt3__18ios_base8setstateB7v160006Ej, symObjAddr: 0x33E4, symBinAddr: 0x1000078B0, symSize: 0x34 }
...
